; ModuleID = '3/2705.c'
source_filename = "3/2705.c"
target datalayout = "e-m:e-p270:32:32-p271:32:32-p272:64:64-i64:64-f80:128-n8:16:32:64-S128"
target triple = "x86_64-pc-linux-gnu"

@a = common dso_local global [1001 x i32] zeroinitializer, align 16
@.str = private unnamed_addr constant [5 x i8] c"%d%d\00", align 1
@n = common dso_local global i32 0, align 4
@.str.1 = private unnamed_addr constant [3 x i8] c"%d\00", align 1
@.str.2 = private unnamed_addr constant [4 x i8] c"yes\00", align 1
@.str.3 = private unnamed_addr constant [3 x i8] c"no\00", align 1

; Function Attrs: noinline nounwind uwtable
define dso_local i32 @comp(i8* %0, i8* %1) #0 {
  %3 = alloca i8*, align 8
  %4 = alloca i8*, align 8
  store i8* %0, i8** %3, align 8
  store i8* %1, i8** %4, align 8
  %5 = load i8*, i8** %3, align 8
  %6 = bitcast i8* %5 to i32*
  %7 = load i32, i32* %6, align 4
  %8 = load i8*, i8** %4, align 8
  %9 = bitcast i8* %8 to i32*
  %10 = load i32, i32* %9, align 4
  %11 = sub nsw i32 %7, %10
  ret i32 %11
}

; Function Attrs: noinline nounwind uwtable
define dso_local i32 @findx(i32 %0, i32 %1, i32 %2) #0 {
  %4 = alloca i32, align 4
  %5 = alloca i32, align 4
  %6 = alloca i32, align 4
  %7 = alloca i32, align 4
  store i32 %0, i32* %5, align 4
  store i32 %1, i32* %6, align 4
  store i32 %2, i32* %7, align 4
  %8 = load i32, i32* %5, align 4
  %9 = load i32, i32* %6, align 4
  %10 = icmp sgt i32 %8, %9
  br i1 %10, label %11, label %12

11:                                               ; preds = %3
  store i32 0, i32* %4, align 4
  br label %64

12:                                               ; preds = %3
  %13 = load i32, i32* %6, align 4
  %14 = load i32, i32* %5, align 4
  %15 = icmp eq i32 %13, %14
  br i1 %15, label %16, label %25

16:                                               ; preds = %12
  %17 = load i32, i32* %6, align 4
  %18 = sext i32 %17 to i64
  %19 = getelementptr inbounds [1001 x i32], [1001 x i32]* @a, i64 0, i64 %18
  %20 = load i32, i32* %19, align 4
  %21 = load i32, i32* %7, align 4
  %22 = icmp eq i32 %20, %21
  br i1 %22, label %23, label %24

23:                                               ; preds = %16
  store i32 1, i32* %4, align 4
  br label %64

24:                                               ; preds = %16
  store i32 0, i32* %4, align 4
  br label %64

25:                                               ; preds = %12
  %26 = load i32, i32* %6, align 4
  %27 = load i32, i32* %5, align 4
  %28 = add nsw i32 %26, %27
  %29 = sdiv i32 %28, 2
  %30 = sext i32 %29 to i64
  %31 = getelementptr inbounds [1001 x i32], [1001 x i32]* @a, i64 0, i64 %30
  %32 = load i32, i32* %31, align 4
  %33 = load i32, i32* %7, align 4
  %34 = icmp eq i32 %32, %33
  br i1 %34, label %35, label %36

35:                                               ; preds = %25
  store i32 1, i32* %4, align 4
  br label %64

36:                                               ; preds = %25
  %37 = load i32, i32* %6, align 4
  %38 = load i32, i32* %5, align 4
  %39 = add nsw i32 %37, %38
  %40 = ashr i32 %39, 1
  %41 = sext i32 %40 to i64
  %42 = getelementptr inbounds [1001 x i32], [1001 x i32]* @a, i64 0, i64 %41
  %43 = load i32, i32* %42, align 4
  %44 = load i32, i32* %7, align 4
  %45 = icmp slt i32 %43, %44
  br i1 %45, label %46, label %55

46:                                               ; preds = %36
  %47 = load i32, i32* %6, align 4
  %48 = load i32, i32* %5, align 4
  %49 = add nsw i32 %47, %48
  %50 = sdiv i32 %49, 2
  %51 = add nsw i32 %50, 1
  %52 = load i32, i32* %6, align 4
  %53 = load i32, i32* %7, align 4
  %54 = call i32 @findx(i32 %51, i32 %52, i32 %53)
  store i32 %54, i32* %4, align 4
  br label %64

55:                                               ; preds = %36
  %56 = load i32, i32* %5, align 4
  %57 = load i32, i32* %6, align 4
  %58 = load i32, i32* %5, align 4
  %59 = add nsw i32 %57, %58
  %60 = sdiv i32 %59, 2
  %61 = sub nsw i32 %60, 1
  %62 = load i32, i32* %7, align 4
  %63 = call i32 @findx(i32 %56, i32 %61, i32 %62)
  store i32 %63, i32* %4, align 4
  br label %64

64:                                               ; preds = %55, %46, %35, %24, %23, %11
  %65 = load i32, i32* %4, align 4
  ret i32 %65
}

; Function Attrs: noinline nounwind uwtable
define dso_local i32 @main() #0 {
  %1 = alloca i32, align 4
  %2 = alloca i32, align 4
  %3 = alloca i32, align 4
  store i32 0, i32* %1, align 4
  %4 = call i32 (i8*, ...) @__isoc99_scanf(i8* getelementptr inbounds ([5 x i8], [5 x i8]* @.str, i64 0, i64 0), i32* @n, i32* %3)
  store i32 1, i32* %2, align 4
  br label %5

5:                                                ; preds = %14, %0
  %6 = load i32, i32* %2, align 4
  %7 = load i32, i32* @n, align 4
  %8 = icmp sle i32 %6, %7
  br i1 %8, label %9, label %17

9:                                                ; preds = %5
  %10 = load i32, i32* %2, align 4
  %11 = sext i32 %10 to i64
  %12 = getelementptr inbounds [1001 x i32], [1001 x i32]* @a, i64 0, i64 %11
  %13 = call i32 (i8*, ...) @__isoc99_scanf(i8* getelementptr inbounds ([3 x i8], [3 x i8]* @.str.1, i64 0, i64 0), i32* %12)
  br label %14

14:                                               ; preds = %9
  %15 = load i32, i32* %2, align 4
  %16 = add nsw i32 %15, 1
  store i32 %16, i32* %2, align 4
  br label %5

17:                                               ; preds = %5
  %18 = load i32, i32* @n, align 4
  %19 = sext i32 %18 to i64
  call void @qsort(i8* bitcast (i32* getelementptr inbounds ([1001 x i32], [1001 x i32]* @a, i64 0, i64 1) to i8*), i64 %19, i64 4, i32 (i8*, i8*)* @comp)
  store i32 1, i32* %2, align 4
  br label %20

20:                                               ; preds = %39, %17
  %21 = load i32, i32* %2, align 4
  %22 = load i32, i32* @n, align 4
  %23 = icmp slt i32 %21, %22
  br i1 %23, label %24, label %42

24:                                               ; preds = %20
  %25 = load i32, i32* %2, align 4
  %26 = add nsw i32 %25, 1
  %27 = load i32, i32* @n, align 4
  %28 = load i32, i32* %3, align 4
  %29 = load i32, i32* %2, align 4
  %30 = sext i32 %29 to i64
  %31 = getelementptr inbounds [1001 x i32], [1001 x i32]* @a, i64 0, i64 %30
  %32 = load i32, i32* %31, align 4
  %33 = sub nsw i32 %28, %32
  %34 = call i32 @findx(i32 %26, i32 %27, i32 %33)
  %35 = icmp ne i32 %34, 0
  br i1 %35, label %36, label %38

36:                                               ; preds = %24
  %37 = call i32 (i8*, ...) @printf(i8* getelementptr inbounds ([4 x i8], [4 x i8]* @.str.2, i64 0, i64 0))
  store i32 0, i32* %1, align 4
  br label %44

38:                                               ; preds = %24
  br label %39

39:                                               ; preds = %38
  %40 = load i32, i32* %2, align 4
  %41 = add nsw i32 %40, 1
  store i32 %41, i32* %2, align 4
  br label %20

42:                                               ; preds = %20
  %43 = call i32 (i8*, ...) @printf(i8* getelementptr inbounds ([3 x i8], [3 x i8]* @.str.3, i64 0, i64 0))
  store i32 0, i32* %1, align 4
  br label %44

44:                                               ; preds = %42, %36
  %45 = load i32, i32* %1, align 4
  ret i32 %45
}

declare dso_local i32 @__isoc99_scanf(i8*, ...) #1

declare dso_local void @qsort(i8*, i64, i64, i32 (i8*, i8*)*) #1

declare dso_local i32 @printf(i8*, ...) #1


!llvm.module.flags = !{!0}
!llvm.ident = !{!1}

!0 = !{i32 1, !"wchar_size", i32 4}
!1 = !{!"clang version 10.0.0-4ubuntu1 "}
